target datalayout = "e-m:e-p270:32:32-p271:32:32-p272:64:64-i64:64-i128:128-f80:128-n8:16:32:64-S128"
target triple = "x86_64-pc-linux-gnu"

%struct.jv = type { i8, i8, i16, i32, %union.anon }
%union.anon = type { ptr }
%struct.jv_refcnt = type { i32 }
%struct.decNumber = type { i32, i32, i8, [1 x i16] }
%struct.jvp_literal_number = type { %struct.jv_refcnt, double, ptr, %struct.decNumber }
%struct.decContext = type { i32, i32, i32, i32, i32, i32, i8 }

@JV_INVALID = dso_local constant %struct.jv zeroinitializer, align 8
@JV_REFCNT_INIT = internal constant %struct.jv_refcnt { i32 1 }, align 4
@dec_ctx_key = internal global i32 0, align 4

; Function Attrs: nounwind uwtable
define dso_local { i64, ptr } @jv_number(double noundef %0) #0 {
  %2 = alloca %struct.jv, align 8
  %3 = alloca double, align 8
  store double %0, ptr %3, align 8, !tbaa !34
  %4 = getelementptr inbounds nuw %struct.jv, ptr %2, i32 0, i32 0
  store i8 4, ptr %4, align 8, !tbaa !4
  %5 = getelementptr inbounds nuw %struct.jv, ptr %2, i32 0, i32 1
  store i8 0, ptr %5, align 1, !tbaa !17
  %6 = getelementptr inbounds nuw %struct.jv, ptr %2, i32 0, i32 2
  store i16 0, ptr %6, align 2, !tbaa !18
  %7 = getelementptr inbounds nuw %struct.jv, ptr %2, i32 0, i32 3
  store i32 0, ptr %7, align 4, !tbaa !19
  %8 = getelementptr inbounds nuw %struct.jv, ptr %2, i32 0, i32 4
  %9 = load double, ptr %3, align 8, !tbaa !34
  store double %9, ptr %8, align 8, !tbaa !12
  %10 = load { i64, ptr }, ptr %2, align 8
  ret { i64, ptr } %10
}

; Function Attrs: nounwind uwtable
define internal ptr @jvp_literal_number_alloc(i32 noundef %0) #0 {
  %2 = alloca i32, align 4
  %3 = alloca i32, align 4
  %4 = alloca ptr, align 8
  store i32 %0, ptr %2, align 4, !tbaa !10
  call void @llvm.lifetime.start.p0(i64 4, ptr %3) #11
  %5 = load i32, ptr %2, align 4, !tbaa !10
  %6 = add i32 %5, 3
  %7 = sub i32 %6, 1
  %8 = udiv i32 %7, 3
  store i32 %8, ptr %3, align 4, !tbaa !10
  call void @llvm.lifetime.start.p0(i64 8, ptr %4) #11
  %9 = load i32, ptr %3, align 4, !tbaa !10
  %10 = sext i32 %9 to i64
  %11 = mul i64 2, %10
  %12 = add i64 40, %11
  %13 = call ptr @jv_mem_alloc(i64 noundef %12)
  store ptr %13, ptr %4, align 8, !tbaa !14
  %14 = load ptr, ptr %4, align 8, !tbaa !14
  %15 = getelementptr inbounds nuw %struct.jvp_literal_number, ptr %14, i32 0, i32 0
  call void @llvm.memcpy.p0.p0.i64(ptr align 8 %15, ptr align 4 @JV_REFCNT_INIT, i64 4, i1 false), !tbaa.struct !16
  %16 = load ptr, ptr %4, align 8, !tbaa !14
  %17 = getelementptr inbounds nuw %struct.jvp_literal_number, ptr %16, i32 0, i32 1
  store double 0x7FF8000000000000, ptr %17, align 8, !tbaa !35
  %18 = load ptr, ptr %4, align 8, !tbaa !14
  %19 = getelementptr inbounds nuw %struct.jvp_literal_number, ptr %18, i32 0, i32 2
  store ptr null, ptr %19, align 8, !tbaa !24
  %20 = load ptr, ptr %4, align 8, !tbaa !14
  call void @llvm.lifetime.end.p0(i64 8, ptr %4) #11
  call void @llvm.lifetime.end.p0(i64 4, ptr %3) #11
  ret ptr %20
}

; Function Attrs: nounwind uwtable
define internal { i64, ptr } @jvp_literal_number_new(ptr noundef %0) #0 {
  %2 = alloca %struct.jv, align 8
  %3 = alloca ptr, align 8
  %4 = alloca ptr, align 8
  %5 = alloca ptr, align 8
  %6 = alloca i32, align 4
  store ptr %0, ptr %3, align 8, !tbaa !30
  call void @llvm.lifetime.start.p0(i64 8, ptr %4) #11
  %7 = load ptr, ptr %3, align 8, !tbaa !30
  %8 = call i64 @strlen(ptr noundef %7) #13
  %9 = trunc i64 %8 to i32
  %10 = call ptr @jvp_literal_number_alloc(i32 noundef %9)
  store ptr %10, ptr %4, align 8, !tbaa !14
  call void @llvm.lifetime.start.p0(i64 8, ptr %5) #11
  %11 = call ptr @tsd_dec_ctx_get(ptr noundef @dec_ctx_key)
  store ptr %11, ptr %5, align 8, !tbaa !14
  %12 = load ptr, ptr %5, align 8, !tbaa !14
  %13 = call ptr @decContextClearStatus(ptr noundef %12, i32 noundef 1)
  %14 = load ptr, ptr %4, align 8, !tbaa !14
  %15 = getelementptr inbounds nuw %struct.jvp_literal_number, ptr %14, i32 0, i32 3
  %16 = load ptr, ptr %3, align 8, !tbaa !30
  %17 = load ptr, ptr %5, align 8, !tbaa !14
  %18 = call ptr @decNumberFromString(ptr noundef %15, ptr noundef %16, ptr noundef %17)
  %19 = load ptr, ptr %5, align 8, !tbaa !14
  %20 = getelementptr inbounds nuw %struct.decContext, ptr %19, i32 0, i32 5
  %21 = load i32, ptr %20, align 4, !tbaa !31
  %22 = and i32 %21, 1
  %23 = icmp ne i32 %22, 0
  br i1 %23, label %24, label %26

24:                                               ; preds = %1
  %25 = load ptr, ptr %4, align 8, !tbaa !14
  call void @jv_mem_free(ptr noundef %25)
  call void @llvm.memcpy.p0.p0.i64(ptr align 8 %2, ptr align 8 @JV_INVALID, i64 16, i1 false), !tbaa.struct !11
  store i32 1, ptr %6, align 4
  br label %49

26:                                               ; preds = %1
  %27 = load ptr, ptr %4, align 8, !tbaa !14
  %28 = getelementptr inbounds nuw %struct.jvp_literal_number, ptr %27, i32 0, i32 3
  %29 = getelementptr inbounds nuw %struct.decNumber, ptr %28, i32 0, i32 2
  %30 = load i8, ptr %29, align 8, !tbaa !33
  %31 = zext i8 %30 to i32
  %32 = and i32 %31, 48
  %33 = icmp ne i32 %32, 0
  br i1 %33, label %34, label %41

34:                                               ; preds = %26
  %35 = load ptr, ptr %4, align 8, !tbaa !14
  call void @jv_mem_free(ptr noundef %35)
  %36 = call { i64, ptr } @jv_number(double noundef 0x7FF8000000000000)
  %37 = getelementptr inbounds nuw { i64, ptr }, ptr %2, i32 0, i32 0
  %38 = extractvalue { i64, ptr } %36, 0
  store i64 %38, ptr %37, align 8
  %39 = getelementptr inbounds nuw { i64, ptr }, ptr %2, i32 0, i32 1
  %40 = extractvalue { i64, ptr } %36, 1
  store ptr %40, ptr %39, align 8
  store i32 1, ptr %6, align 4
  br label %49

41:                                               ; preds = %26
  %42 = getelementptr inbounds nuw %struct.jv, ptr %2, i32 0, i32 0
  store i8 -108, ptr %42, align 8, !tbaa !4
  %43 = getelementptr inbounds nuw %struct.jv, ptr %2, i32 0, i32 1
  store i8 0, ptr %43, align 1, !tbaa !17
  %44 = getelementptr inbounds nuw %struct.jv, ptr %2, i32 0, i32 2
  store i16 0, ptr %44, align 2, !tbaa !18
  %45 = getelementptr inbounds nuw %struct.jv, ptr %2, i32 0, i32 3
  store i32 0, ptr %45, align 4, !tbaa !19
  %46 = getelementptr inbounds nuw %struct.jv, ptr %2, i32 0, i32 4
  %47 = load ptr, ptr %4, align 8, !tbaa !14
  %48 = getelementptr inbounds nuw %struct.jvp_literal_number, ptr %47, i32 0, i32 0
  store ptr %48, ptr %46, align 8, !tbaa !12
  store i32 1, ptr %6, align 4
  br label %49

49:                                               ; preds = %41, %34, %24
  call void @llvm.lifetime.end.p0(i64 8, ptr %5) #11
  call void @llvm.lifetime.end.p0(i64 8, ptr %4) #11
  %50 = load { i64, ptr }, ptr %2, align 8
  ret { i64, ptr } %50
}

; Function Attrs: nounwind uwtable
define dso_local { i64, ptr } @jv_number_with_literal(ptr noundef %0) #0 {
  %2 = alloca %struct.jv, align 8
  %3 = alloca ptr, align 8
  store ptr %0, ptr %3, align 8, !tbaa !30
  %4 = load ptr, ptr %3, align 8, !tbaa !30
  %5 = call { i64, ptr } @jvp_literal_number_new(ptr noundef %4)
  %6 = getelementptr inbounds nuw { i64, ptr }, ptr %2, i32 0, i32 0
  %7 = extractvalue { i64, ptr } %5, 0
  store i64 %7, ptr %6, align 8
  %8 = getelementptr inbounds nuw { i64, ptr }, ptr %2, i32 0, i32 1
  %9 = extractvalue { i64, ptr } %5, 1
  store ptr %9, ptr %8, align 8
  %10 = load { i64, ptr }, ptr %2, align 8
  ret { i64, ptr } %10
}