; Function Attrs: nounwind uwtable
define dso_local { i64, ptr } @jv_number_with_literal(ptr noundef %0) local_unnamed_addr #2 {
  %2 = tail call i64 @strlen(ptr noundef nonnull dereferenceable(1) %0) #28
  %3 = trunc i64 %2 to i32
  %4 = add i32 %3, 2
  %5 = udiv i32 %4, 3
  %6 = shl nuw i32 %5, 1
  %7 = zext i32 %6 to i64
  %8 = add nuw nsw i64 %7, 40
  %9 = tail call ptr @jv_mem_alloc(i64 noundef %8) #25
  store i32 1, ptr %9, align 8, !tbaa !4
  %10 = getelementptr inbounds nuw i8, ptr %9, i64 8
  store double 0x7FF8000000000000, ptr %10, align 8, !tbaa !24
  %11 = getelementptr inbounds nuw i8, ptr %9, i64 16
  store ptr null, ptr %11, align 8, !tbaa !14
  %12 = tail call fastcc ptr @tsd_dec_ctx_get()
  %13 = tail call ptr @decContextClearStatus(ptr noundef %12, i32 noundef 1) #25
  %14 = getelementptr inbounds nuw i8, ptr %9, i64 24
  %15 = tail call ptr @decNumberFromString(ptr noundef nonnull %14, ptr noundef nonnull %0, ptr noundef %12) #25
  %16 = getelementptr inbounds nuw i8, ptr %12, i64 20
  %17 = load i32, ptr %16, align 4, !tbaa !25
  %18 = and i32 %17, 1
  %.not.i = icmp eq i32 %18, 0
  br i1 %.not.i, label %19, label %.sink.split.i

19:                                               ; preds = %1
  %20 = getelementptr inbounds nuw i8, ptr %9, i64 32
  %21 = load i8, ptr %20, align 8, !tbaa !27
  %22 = and i8 %21, 48
  %.not17.i = icmp eq i8 %22, 0
  br i1 %.not17.i, label %jvp_literal_number_new.exit, label %.sink.split.i

.sink.split.i:                                    ; preds = %19, %1
  %.sroa.0.sroa.0.0.ph.i = phi i64 [ 0, %1 ], [ 4, %19 ]
  %.sroa.7.0.ph.i = phi ptr [ null, %1 ], [ inttoptr (i64 9221120237041090560 to ptr), %19 ]
  tail call void @jv_mem_free(ptr noundef nonnull %9) #25
  br label %jvp_literal_number_new.exit

jvp_literal_number_new.exit:                      ; preds = %19, %.sink.split.i
  %.sroa.0.sroa.0.0.i = phi i64 [ 148, %19 ], [ %.sroa.0.sroa.0.0.ph.i, %.sink.split.i ]
  %.sroa.7.0.i = phi ptr [ %9, %19 ], [ %.sroa.7.0.ph.i, %.sink.split.i ]
  %.fca.0.insert.i = insertvalue { i64, ptr } poison, i64 %.sroa.0.sroa.0.0.i, 0
  %.fca.1.insert.i = insertvalue { i64, ptr } %.fca.0.insert.i, ptr %.sroa.7.0.i, 1
  ret { i64, ptr } %.fca.1.insert.i
}